; ModuleID = '7/841.c'
source_filename = "7/841.c"
target datalayout = "e-m:e-p270:32:32-p271:32:32-p272:64:64-i64:64-f80:128-n8:16:32:64-S128"
target triple = "x86_64-pc-linux-gnu"

@.str = private unnamed_addr constant [9 x i8] c"%s\0A%s\0A%s\00", align 1
@.str.1 = private unnamed_addr constant [3 x i8] c"%s\00", align 1

; Function Attrs: noinline nounwind uwtable
define dso_local i32 @main() #0 {
  %1 = alloca i32, align 4
  %2 = alloca [300 x i8], align 16
  %3 = alloca [50 x i8], align 16
  %4 = alloca [50 x i8], align 16
  %5 = alloca i32, align 4
  %6 = alloca i32, align 4
  %7 = alloca i32, align 4
  %8 = alloca i32, align 4
  %9 = alloca i32, align 4
  %10 = alloca i32, align 4
  %11 = alloca i32, align 4
  %12 = alloca i32, align 4
  store i32 0, i32* %1, align 4
  store i32 0, i32* %10, align 4
  %13 = getelementptr inbounds [300 x i8], [300 x i8]* %2, i64 0, i64 0
  %14 = getelementptr inbounds [50 x i8], [50 x i8]* %3, i64 0, i64 0
  %15 = getelementptr inbounds [50 x i8], [50 x i8]* %4, i64 0, i64 0
  %16 = call i32 (i8*, ...) @__isoc99_scanf(i8* getelementptr inbounds ([9 x i8], [9 x i8]* @.str, i64 0, i64 0), i8* %13, i8* %14, i8* %15)
  %17 = getelementptr inbounds [50 x i8], [50 x i8]* %3, i64 0, i64 0
  %18 = call i64 @strlen(i8* %17) #3
  %19 = trunc i64 %18 to i32
  store i32 %19, i32* %5, align 4
  %20 = getelementptr inbounds [300 x i8], [300 x i8]* %2, i64 0, i64 0
  %21 = call i64 @strlen(i8* %20) #3
  %22 = trunc i64 %21 to i32
  store i32 %22, i32* %8, align 4
  store i32 0, i32* %6, align 4
  br label %23

23:                                               ; preds = %57, %0
  %24 = load i32, i32* %6, align 4
  %25 = load i32, i32* %8, align 4
  %26 = icmp slt i32 %24, %25
  br i1 %26, label %27, label %60

27:                                               ; preds = %23
  store i32 0, i32* %10, align 4
  %28 = load i32, i32* %6, align 4
  store i32 %28, i32* %7, align 4
  store i32 0, i32* %9, align 4
  br label %29

29:                                               ; preds = %47, %27
  %30 = load i32, i32* %9, align 4
  %31 = load i32, i32* %5, align 4
  %32 = icmp slt i32 %30, %31
  br i1 %32, label %33, label %52

33:                                               ; preds = %29
  %34 = load i32, i32* %7, align 4
  %35 = sext i32 %34 to i64
  %36 = getelementptr inbounds [300 x i8], [300 x i8]* %2, i64 0, i64 %35
  %37 = load i8, i8* %36, align 1
  %38 = sext i8 %37 to i32
  %39 = load i32, i32* %9, align 4
  %40 = sext i32 %39 to i64
  %41 = getelementptr inbounds [50 x i8], [50 x i8]* %3, i64 0, i64 %40
  %42 = load i8, i8* %41, align 1
  %43 = sext i8 %42 to i32
  %44 = icmp ne i32 %38, %43
  br i1 %44, label %45, label %46

45:                                               ; preds = %33
  store i32 1, i32* %10, align 4
  br label %52

46:                                               ; preds = %33
  br label %47

47:                                               ; preds = %46
  %48 = load i32, i32* %7, align 4
  %49 = add nsw i32 %48, 1
  store i32 %49, i32* %7, align 4
  %50 = load i32, i32* %9, align 4
  %51 = add nsw i32 %50, 1
  store i32 %51, i32* %9, align 4
  br label %29

52:                                               ; preds = %45, %29
  %53 = load i32, i32* %10, align 4
  %54 = icmp eq i32 %53, 0
  br i1 %54, label %55, label %56

55:                                               ; preds = %52
  br label %60

56:                                               ; preds = %52
  br label %57

57:                                               ; preds = %56
  %58 = load i32, i32* %6, align 4
  %59 = add nsw i32 %58, 1
  store i32 %59, i32* %6, align 4
  br label %23

60:                                               ; preds = %55, %23
  %61 = load i32, i32* %10, align 4
  %62 = icmp eq i32 %61, 0
  br i1 %62, label %63, label %85

63:                                               ; preds = %60
  %64 = load i32, i32* %6, align 4
  store i32 %64, i32* %11, align 4
  store i32 0, i32* %12, align 4
  br label %65

65:                                               ; preds = %79, %63
  %66 = load i32, i32* %11, align 4
  %67 = load i32, i32* %6, align 4
  %68 = load i32, i32* %5, align 4
  %69 = add nsw i32 %67, %68
  %70 = icmp slt i32 %66, %69
  br i1 %70, label %71, label %84

71:                                               ; preds = %65
  %72 = load i32, i32* %12, align 4
  %73 = sext i32 %72 to i64
  %74 = getelementptr inbounds [50 x i8], [50 x i8]* %4, i64 0, i64 %73
  %75 = load i8, i8* %74, align 1
  %76 = load i32, i32* %11, align 4
  %77 = sext i32 %76 to i64
  %78 = getelementptr inbounds [300 x i8], [300 x i8]* %2, i64 0, i64 %77
  store i8 %75, i8* %78, align 1
  br label %79

79:                                               ; preds = %71
  %80 = load i32, i32* %11, align 4
  %81 = add nsw i32 %80, 1
  store i32 %81, i32* %11, align 4
  %82 = load i32, i32* %12, align 4
  %83 = add nsw i32 %82, 1
  store i32 %83, i32* %12, align 4
  br label %65

84:                                               ; preds = %65
  br label %85

85:                                               ; preds = %84, %60
  %86 = getelementptr inbounds [300 x i8], [300 x i8]* %2, i64 0, i64 0
  %87 = call i32 (i8*, ...) @printf(i8* getelementptr inbounds ([3 x i8], [3 x i8]* @.str.1, i64 0, i64 0), i8* %86)
  ret i32 0
}

declare dso_local i32 @__isoc99_scanf(i8*, ...) #1

; Function Attrs: nounwind readonly
declare dso_local i64 @strlen(i8*) #2

declare dso_local i32 @printf(i8*, ...) #1


!llvm.module.flags = !{!0}
!llvm.ident = !{!1}

!0 = !{i32 1, !"wchar_size", i32 4}
!1 = !{!"clang version 10.0.0-4ubuntu1 "}
