; ModuleID = 'source-C-CXX/6/841.c'
source_filename = "source-C-CXX/6/841.c"
target datalayout = "e-m:e-p270:32:32-p271:32:32-p272:64:64-i64:64-f80:128-n8:16:32:64-S128"
target triple = "x86_64-pc-linux-gnu"

@.str = private unnamed_addr constant [9 x i8] c"%s\0A%s\0A%s\00", align 1
@.str.1 = private unnamed_addr constant [3 x i8] c"%s\00", align 1

; Function Attrs: nofree nounwind sspstrong uwtable
define dso_local i32 @main() local_unnamed_addr #0 {
  %1 = alloca [300 x i8], align 16
  %2 = alloca [50 x i8], align 16
  %3 = alloca [50 x i8], align 16
  %4 = getelementptr inbounds [50 x i8], [50 x i8]* %3, i64 0, i64 0
  %5 = getelementptr inbounds [300 x i8], [300 x i8]* %1, i64 0, i64 0
  call void @llvm.lifetime.start.p0i8(i64 300, i8* nonnull %5) #6
  %6 = getelementptr inbounds [50 x i8], [50 x i8]* %2, i64 0, i64 0
  call void @llvm.lifetime.start.p0i8(i64 50, i8* nonnull %6) #6
  %7 = getelementptr inbounds [50 x i8], [50 x i8]* %3, i64 0, i64 0
  call void @llvm.lifetime.start.p0i8(i64 50, i8* nonnull %7) #6
  %8 = call i32 (i8*, ...) @__isoc99_scanf(i8* getelementptr inbounds ([9 x i8], [9 x i8]* @.str, i64 0, i64 0), i8* nonnull %5, i8* nonnull %6, i8* nonnull %7)
  %9 = call i64 @strlen(i8* noundef nonnull %6) #7
  %10 = trunc i64 %9 to i32
  %11 = call i64 @strlen(i8* noundef nonnull %5) #7
  %12 = trunc i64 %11 to i32
  %13 = icmp slt i32 %10, 1
  %14 = icmp slt i32 %12, 1
  %15 = select i1 %14, i1 true, i1 %13
  br i1 %15, label %38, label %16

16:                                               ; preds = %0
  %17 = and i64 %11, 4294967295
  %18 = and i64 %9, 4294967295
  br label %19

19:                                               ; preds = %16, %30
  %20 = phi i64 [ 0, %16 ], [ %32, %30 ]
  %21 = phi i32 [ 0, %16 ], [ %31, %30 ]
  br label %22

22:                                               ; preds = %19, %34
  %23 = phi i64 [ %20, %19 ], [ %35, %34 ]
  %24 = phi i64 [ 0, %19 ], [ %36, %34 ]
  %25 = getelementptr inbounds [300 x i8], [300 x i8]* %1, i64 0, i64 %23
  %26 = load i8, i8* %25, align 1, !tbaa !5
  %27 = getelementptr inbounds [50 x i8], [50 x i8]* %2, i64 0, i64 %24
  %28 = load i8, i8* %27, align 1, !tbaa !5
  %29 = icmp eq i8 %26, %28
  br i1 %29, label %34, label %30

30:                                               ; preds = %22
  %31 = add nuw nsw i32 %21, 1
  %32 = add nuw nsw i64 %20, 1
  %33 = icmp eq i64 %32, %17
  br i1 %33, label %51, label %19, !llvm.loop !8

34:                                               ; preds = %22
  %35 = add nuw nsw i64 %23, 1
  %36 = add nuw nsw i64 %24, 1
  %37 = icmp eq i64 %36, %18
  br i1 %37, label %38, label %22, !llvm.loop !10

38:                                               ; preds = %34, %0
  %39 = phi i32 [ 0, %0 ], [ %21, %34 ]
  %40 = icmp sgt i32 %10, 0
  br i1 %40, label %41, label %51

41:                                               ; preds = %38
  %42 = zext i32 %39 to i64
  %43 = getelementptr [300 x i8], [300 x i8]* %1, i64 0, i64 %42
  %44 = add i32 %39, %10
  %45 = add nuw i32 %39, 1
  %46 = call i32 @llvm.smax.i32(i32 %44, i32 %45)
  %47 = xor i32 %39, -1
  %48 = add i32 %46, %47
  %49 = zext i32 %48 to i64
  %50 = add nuw nsw i64 %49, 1
  call void @llvm.memcpy.p0i8.p0i8.i64(i8* noundef nonnull align 1 dereferenceable(1) %43, i8* noundef nonnull align 16 %4, i64 %50, i1 false)
  br label %51

51:                                               ; preds = %30, %41, %38
  %52 = call i32 (i8*, ...) @printf(i8* nonnull dereferenceable(1) getelementptr inbounds ([3 x i8], [3 x i8]* @.str.1, i64 0, i64 0), i8* nonnull %5)
  call void @llvm.lifetime.end.p0i8(i64 50, i8* nonnull %7) #6
  call void @llvm.lifetime.end.p0i8(i64 50, i8* nonnull %6) #6
  call void @llvm.lifetime.end.p0i8(i64 300, i8* nonnull %5) #6
  ret i32 0
}

; Function Attrs: argmemonly mustprogress nofree nosync nounwind willreturn
declare void @llvm.lifetime.start.p0i8(i64 immarg, i8* nocapture) #1

; Function Attrs: nofree nounwind
declare noundef i32 @__isoc99_scanf(i8* nocapture noundef readonly, ...) local_unnamed_addr #2

; Function Attrs: argmemonly mustprogress nofree nounwind readonly willreturn
declare i64 @strlen(i8* nocapture) local_unnamed_addr #3

; Function Attrs: nofree nounwind
declare noundef i32 @printf(i8* nocapture noundef readonly, ...) local_unnamed_addr #2

; Function Attrs: argmemonly mustprogress nofree nosync nounwind willreturn
declare void @llvm.lifetime.end.p0i8(i64 immarg, i8* nocapture) #1

; Function Attrs: nofree nosync nounwind readnone speculatable willreturn
declare i32 @llvm.smax.i32(i32, i32) #4

; Function Attrs: argmemonly nofree nounwind willreturn
declare void @llvm.memcpy.p0i8.p0i8.i64(i8* noalias nocapture writeonly, i8* noalias nocapture readonly, i64, i1 immarg) #5


!llvm.module.flags = !{!0, !1, !2, !3}
!llvm.ident = !{!4}

!0 = !{i32 1, !"wchar_size", i32 4}
!1 = !{i32 7, !"PIC Level", i32 2}
!2 = !{i32 7, !"PIE Level", i32 2}
!3 = !{i32 7, !"uwtable", i32 1}
!4 = !{!"clang version 13.0.0"}
!5 = !{!6, !6, i64 0}
!6 = !{!"omnipotent char", !7, i64 0}
!7 = !{!"Simple C/C++ TBAA"}
!8 = distinct !{!8, !9}
!9 = !{!"llvm.loop.mustprogress"}
!10 = distinct !{!10, !9}
